target datalayout = "e-m:e-p270:32:32-p271:32:32-p272:64:64-i64:64-i128:128-f80:128-n8:16:32:64-S128"
target triple = "x86_64-pc-linux-gnu"

%struct.tls_group_st = type { i32, i32, i32, i32, i32, i32, i32 }
%struct.ossl_param_st = type { ptr, i32, ptr, i64, i64 }
%struct.xorkey_st = type { [32 x i8], [32 x i8], i32, i32, ptr, %struct.CRYPTO_REF_COUNT }
%struct.CRYPTO_REF_COUNT = type { i32 }

@xor_group = internal global %struct.tls_group_st { i32 0, i32 128, i32 772, i32 0, i32 -1, i32 -1, i32 0 }, align 4
@.str.14 = private unnamed_addr constant [5 x i8] c"bits\00", align 1
@.str.15 = private unnamed_addr constant [14 x i8] c"security-bits\00", align 1
@.str.16 = private unnamed_addr constant [16 x i8] c"encoded-pub-key\00", align 1

; Function Attrs: inlinehint nounwind uwtable
define internal i32 @xor_get_params(ptr noundef %0, ptr noundef %1) #3 {
  %3 = alloca i32, align 4
  %4 = alloca ptr, align 8
  %5 = alloca ptr, align 8
  %6 = alloca ptr, align 8
  %7 = alloca ptr, align 8
  %8 = alloca i32, align 4
  store ptr %0, ptr %4, align 8, !tbaa !13
  store ptr %1, ptr %5, align 8, !tbaa !43
  call void @llvm.lifetime.start.p0(i64 8, ptr %6) #8
  %9 = load ptr, ptr %4, align 8, !tbaa !13
  store ptr %9, ptr %6, align 8, !tbaa !41
  call void @llvm.lifetime.start.p0(i64 8, ptr %7) #8
  %10 = load ptr, ptr %5, align 8, !tbaa !43
  %11 = call ptr @OSSL_PARAM_locate(ptr noundef %10, ptr noundef @.str.14)
  store ptr %11, ptr %7, align 8, !tbaa !43
  %12 = icmp ne ptr %11, null
  br i1 %12, label %13, label %18

13:                                               ; preds = %2
  %14 = load ptr, ptr %7, align 8, !tbaa !43
  %15 = call i32 @OSSL_PARAM_set_int(ptr noundef %14, i32 noundef 32)
  %16 = icmp ne i32 %15, 0
  br i1 %16, label %18, label %17

17:                                               ; preds = %13
  store i32 0, ptr %3, align 4
  store i32 1, ptr %8, align 4
  br label %59

18:                                               ; preds = %13, %2
  %19 = load ptr, ptr %5, align 8, !tbaa !43
  %20 = call ptr @OSSL_PARAM_locate(ptr noundef %19, ptr noundef @.str.15)
  store ptr %20, ptr %7, align 8, !tbaa !43
  %21 = icmp ne ptr %20, null
  br i1 %21, label %22, label %28

22:                                               ; preds = %18
  %23 = load ptr, ptr %7, align 8, !tbaa !43
  %24 = load i32, ptr getelementptr inbounds nuw (%struct.tls_group_st, ptr @xor_group, i32 0, i32 1), align 4, !tbaa !57
  %25 = call i32 @OSSL_PARAM_set_int(ptr noundef %23, i32 noundef %24)
  %26 = icmp ne i32 %25, 0
  br i1 %26, label %28, label %27

27:                                               ; preds = %22
  store i32 0, ptr %3, align 4
  store i32 1, ptr %8, align 4
  br label %59

28:                                               ; preds = %22, %18
  %29 = load ptr, ptr %5, align 8, !tbaa !43
  %30 = call ptr @OSSL_PARAM_locate(ptr noundef %29, ptr noundef @.str.16)
  store ptr %30, ptr %7, align 8, !tbaa !43
  %31 = icmp ne ptr %30, null
  br i1 %31, label %32, label %58

32:                                               ; preds = %28
  %33 = load ptr, ptr %7, align 8, !tbaa !43
  %34 = getelementptr inbounds nuw %struct.ossl_param_st, ptr %33, i32 0, i32 1
  %35 = load i32, ptr %34, align 8, !tbaa !50
  %36 = icmp ne i32 %35, 5
  br i1 %36, label %37, label %38

37:                                               ; preds = %32
  store i32 0, ptr %3, align 4
  store i32 1, ptr %8, align 4
  br label %59

38:                                               ; preds = %32
  %39 = load ptr, ptr %7, align 8, !tbaa !43
  %40 = getelementptr inbounds nuw %struct.ossl_param_st, ptr %39, i32 0, i32 4
  store i64 32, ptr %40, align 8, !tbaa !58
  %41 = load ptr, ptr %7, align 8, !tbaa !43
  %42 = getelementptr inbounds nuw %struct.ossl_param_st, ptr %41, i32 0, i32 2
  %43 = load ptr, ptr %42, align 8, !tbaa !37
  %44 = icmp ne ptr %43, null
  br i1 %44, label %45, label %57

45:                                               ; preds = %38
  %46 = load ptr, ptr %7, align 8, !tbaa !43
  %47 = getelementptr inbounds nuw %struct.ossl_param_st, ptr %46, i32 0, i32 3
  %48 = load i64, ptr %47, align 8, !tbaa !39
  %49 = icmp uge i64 %48, 32
  br i1 %49, label %50, label %57

50:                                               ; preds = %45
  %51 = load ptr, ptr %7, align 8, !tbaa !43
  %52 = getelementptr inbounds nuw %struct.ossl_param_st, ptr %51, i32 0, i32 2
  %53 = load ptr, ptr %52, align 8, !tbaa !37
  %54 = load ptr, ptr %6, align 8, !tbaa !41
  %55 = getelementptr inbounds nuw %struct.xorkey_st, ptr %54, i32 0, i32 1
  %56 = getelementptr inbounds [32 x i8], ptr %55, i64 0, i64 0
  call void @llvm.memcpy.p0.p0.i64(ptr align 1 %53, ptr align 8 %56, i64 32, i1 false)
  br label %57

57:                                               ; preds = %50, %45, %38
  br label %58

58:                                               ; preds = %57, %28
  store i32 1, ptr %3, align 4
  store i32 1, ptr %8, align 4
  br label %59

59:                                               ; preds = %58, %37, %27, %17
  call void @llvm.lifetime.end.p0(i64 8, ptr %7) #8
  call void @llvm.lifetime.end.p0(i64 8, ptr %6) #8
  %60 = load i32, ptr %3, align 4
  ret i32 %60
}