; Function Attrs: inlinehint nounwind uwtable
define internal range(i32 0, 2) i32 @xor_get_params(ptr noundef readonly captures(none) %0, ptr noundef %1) #5 {
  %3 = tail call ptr @OSSL_PARAM_locate(ptr noundef %1, ptr noundef nonnull @.str.14) #16
  %.not = icmp eq ptr %3, null
  br i1 %.not, label %6, label %4

4:                                                ; preds = %2
  %5 = tail call i32 @OSSL_PARAM_set_int(ptr noundef nonnull %3, i32 noundef 32) #16
  %.not16 = icmp eq i32 %5, 0
  br i1 %.not16, label %26, label %6

6:                                                ; preds = %4, %2
  %7 = tail call ptr @OSSL_PARAM_locate(ptr noundef %1, ptr noundef nonnull @.str.15) #16
  %.not17 = icmp eq ptr %7, null
  br i1 %.not17, label %11, label %8

8:                                                ; preds = %6
  %9 = load i32, ptr getelementptr inbounds nuw (i8, ptr @xor_group, i64 4), align 4, !tbaa !44
  %10 = tail call i32 @OSSL_PARAM_set_int(ptr noundef nonnull %7, i32 noundef %9) #16
  %.not18 = icmp eq i32 %10, 0
  br i1 %.not18, label %26, label %11

11:                                               ; preds = %8, %6
  %12 = tail call ptr @OSSL_PARAM_locate(ptr noundef %1, ptr noundef nonnull @.str.16) #16
  %.not19 = icmp eq ptr %12, null
  br i1 %.not19, label %26, label %13

13:                                               ; preds = %11
  %14 = getelementptr inbounds nuw i8, ptr %12, i64 8
  %15 = load i32, ptr %14, align 8, !tbaa !38
  %.not20 = icmp eq i32 %15, 5
  br i1 %.not20, label %16, label %26

16:                                               ; preds = %13
  %17 = getelementptr inbounds nuw i8, ptr %12, i64 32
  store i64 32, ptr %17, align 8, !tbaa !45
  %18 = getelementptr inbounds nuw i8, ptr %12, i64 16
  %19 = load ptr, ptr %18, align 8, !tbaa !28
  %.not21 = icmp eq ptr %19, null
  br i1 %.not21, label %26, label %20

20:                                               ; preds = %16
  %21 = getelementptr inbounds nuw i8, ptr %12, i64 24
  %22 = load i64, ptr %21, align 8, !tbaa !31
  %23 = icmp ugt i64 %22, 31
  br i1 %23, label %24, label %26

24:                                               ; preds = %20
  %25 = getelementptr inbounds nuw i8, ptr %0, i64 32
  tail call void @llvm.memcpy.p0.p0.i64(ptr noundef nonnull align 1 dereferenceable(32) %19, ptr noundef nonnull align 8 dereferenceable(32) %25, i64 32, i1 false)
  br label %26

26:                                               ; preds = %11, %24, %20, %16, %13, %8, %4
  %.0 = phi i32 [ 0, %4 ], [ 0, %8 ], [ 0, %13 ], [ 1, %16 ], [ 1, %20 ], [ 1, %24 ], [ 1, %11 ]
  ret i32 %.0
}